target datalayout = "e-m:e-p270:32:32-p271:32:32-p272:64:64-i64:64-i128:128-f80:128-n8:16:32:64-S128"
target triple = "x86_64-unknown-linux-gnu"

%struct.pcpu_hot = type { %union.anon.6 }
%union.anon.6 = type { %struct.anon.7, [16 x i8] }
%struct.anon.7 = type { ptr, i32, i32, i64, i64, ptr, i16, i8 }

@pcpu_hot = external dso_local global %struct.pcpu_hot, section ".data..percpu..shared_aligned", align 64

; Function Attrs: fn_ret_thunk_extern nounwind null_pointer_is_valid
define internal fastcc i64 @journal_shrink_one_cp_list(ptr noundef %0, i32 noundef %1, ptr nocapture noundef writeonly %2) unnamed_addr #0 align 16 {
  store i8 0, ptr %2, align 1
  %4 = icmp eq ptr %0, null
  br i1 %4, label %50, label %5

5:                                                ; preds = %3
  %6 = getelementptr inbounds i8, ptr %0, i64 88
  %7 = load ptr, ptr %6, align 8
  %8 = icmp eq i32 %1, 0
  %9 = icmp eq i32 %1, 2
  br label %10

10:                                               ; preds = %47, %5
  %11 = phi ptr [ %0, %5 ], [ %14, %47 ]
  %12 = phi i64 [ 0, %5 ], [ %48, %47 ]
  %13 = getelementptr inbounds i8, ptr %11, i64 80
  %14 = load ptr, ptr %13, align 8
  br i1 %8, label %15, label %17

15:                                               ; preds = %10
  %16 = tail call i32 @__jbd2_journal_remove_checkpoint(ptr noundef %11), !range !26
  br label %36

17:                                               ; preds = %10
  %18 = load ptr, ptr %11, align 8
  %19 = getelementptr inbounds i8, ptr %11, i64 40
  %20 = load ptr, ptr %19, align 8
  %21 = icmp eq ptr %20, null
  br i1 %21, label %22, label %32

22:                                               ; preds = %17
  %23 = tail call i8 asm sideeffect ".pushsection .smp_locks,\22a\22\0A.balign 4\0A.long 671f - .\0A.popsection\0A671:\0A\09lock;  btsq  $2, $0\0A\09/* output condition code c*/\0A", "=*m,={@ccc},Ir,*m,~{memory},~{dirflag},~{fpsr},~{flags}"(ptr elementtype(i64) %18, i64 2, ptr elementtype(i64) %18) #9, !srcloc !24
  %24 = icmp ult i8 %23, 2
  tail call void @llvm.assume(i1 %24)
  %25 = icmp eq i8 %23, 0
  br i1 %25, label %26, label %32

26:                                               ; preds = %22
  %27 = load volatile i64, ptr %18, align 8
  %28 = and i64 %27, 2
  %29 = icmp eq i64 %28, 0
  tail call void @unlock_buffer(ptr noundef %18) #9
  br i1 %29, label %30, label %32

30:                                               ; preds = %26
  %31 = tail call i32 @__jbd2_journal_remove_checkpoint(ptr noundef %11), !range !26
  br label %32

32:                                               ; preds = %30, %26, %22, %17
  %33 = phi i32 [ %31, %30 ], [ -16, %17 ], [ -16, %22 ], [ -16, %26 ]
  %34 = icmp slt i32 %33, 0
  br i1 %34, label %35, label %36

35:                                               ; preds = %32
  br i1 %9, label %47, label %50

36:                                               ; preds = %32, %15
  %37 = phi i32 [ %16, %15 ], [ %33, %32 ]
  %38 = add i64 %12, 1
  %39 = icmp eq i32 %37, 0
  br i1 %39, label %41, label %40

40:                                               ; preds = %36
  store i8 1, ptr %2, align 1
  br label %50

41:                                               ; preds = %36
  %42 = tail call i64 asm "movq %gs:${1:P}, $0", "=r,p,~{dirflag},~{fpsr},~{flags}"(ptr nonnull @pcpu_hot) #11, !srcloc !29
  %43 = inttoptr i64 %42 to ptr
  %44 = load volatile i64, ptr %43, align 8
  %45 = and i64 %44, 8
  %46 = icmp eq i64 %45, 0
  br i1 %46, label %47, label %50

47:                                               ; preds = %41, %35
  %48 = phi i64 [ %38, %41 ], [ %12, %35 ]
  %49 = icmp eq ptr %11, %7
  br i1 %49, label %50, label %10, !llvm.loop !43

50:                                               ; preds = %47, %41, %40, %35, %3
  %51 = phi i64 [ 0, %3 ], [ %38, %40 ], [ %38, %41 ], [ %48, %47 ], [ %12, %35 ]
  ret i64 %51
}

; Function Attrs: fn_ret_thunk_extern nounwind null_pointer_is_valid
define dso_local void @__jbd2_journal_clean_checkpoint_list(ptr nocapture noundef readonly %0, i1 noundef zeroext %1) local_unnamed_addr #0 align 16 {
  %3 = alloca i8, align 1
  call void @llvm.lifetime.start.p0(i64 1, ptr nonnull %3) #9
  store i8 0, ptr %3, align 1, !annotation !21
  %4 = getelementptr inbounds i8, ptr %0, i64 128
  %5 = load ptr, ptr %4, align 8
  %6 = icmp eq ptr %5, null
  br i1 %6, label %29, label %7

7:                                                ; preds = %2
  %8 = xor i1 %1, true
  %9 = zext i1 %8 to i32
  %10 = getelementptr inbounds i8, ptr %5, i64 160
  %11 = load ptr, ptr %10, align 8
  br label %12

12:                                               ; preds = %12, %7
  %13 = phi ptr [ %5, %7 ], [ %15, %12 ]
  %14 = getelementptr inbounds i8, ptr %13, i64 152
  %15 = load ptr, ptr %14, align 8
  %16 = getelementptr inbounds i8, ptr %13, i64 56
  %17 = load ptr, ptr %16, align 8
  %18 = call fastcc i64 @journal_shrink_one_cp_list(ptr noundef %17, i32 noundef %9, ptr noundef nonnull %3)
  %19 = tail call i64 asm "movq %gs:${1:P}, $0", "=r,p,~{dirflag},~{fpsr},~{flags}"(ptr nonnull @pcpu_hot) #11, !srcloc !29
  %20 = inttoptr i64 %19 to ptr
  %21 = load volatile i64, ptr %20, align 8
  %22 = and i64 %21, 8
  %23 = icmp ne i64 %22, 0
  %24 = load i8, ptr %3, align 1, !range !44
  %25 = icmp eq i8 %24, 0
  %26 = select i1 %23, i1 true, i1 %25
  %27 = icmp eq ptr %13, %11
  %28 = select i1 %26, i1 true, i1 %27
  br i1 %28, label %29, label %12, !llvm.loop !45

29:                                               ; preds = %12, %2
  call void @llvm.lifetime.end.p0(i64 1, ptr nonnull %3) #9
  ret void
}