; Function Attrs: fn_ret_thunk_extern nounwind null_pointer_is_valid
define dso_local void @__jbd2_journal_clean_checkpoint_list(ptr nocapture noundef readonly %0, i1 noundef zeroext %1) local_unnamed_addr #0 align 16 {
  %3 = getelementptr inbounds i8, ptr %0, i64 128
  %4 = load ptr, ptr %3, align 8
  %5 = icmp eq ptr %4, null
  br i1 %5, label %.loopexit, label %6

6:                                                ; preds = %2
  %7 = getelementptr inbounds i8, ptr %4, i64 160
  %8 = load ptr, ptr %7, align 8
  br i1 %1, label %.split.us, label %.split

.split.us:                                        ; preds = %6, %journal_shrink_one_cp_list.exit.us
  %9 = phi ptr [ %11, %journal_shrink_one_cp_list.exit.us ], [ %4, %6 ]
  %10 = getelementptr inbounds i8, ptr %9, i64 152
  %11 = load ptr, ptr %10, align 8
  %12 = getelementptr inbounds i8, ptr %9, i64 56
  %13 = load ptr, ptr %12, align 8
  %14 = icmp eq ptr %13, null
  br i1 %14, label %journal_shrink_one_cp_list.exit.us, label %.split.us.i.preheader.us

.split.us.i.preheader.us:                         ; preds = %.split.us
  %15 = getelementptr inbounds i8, ptr %13, i64 88
  %16 = load ptr, ptr %15, align 8
  br label %.split.us.i.us

.split.us.i.us:                                   ; preds = %.split.us.i.preheader.us, %82
  %17 = phi ptr [ %19, %82 ], [ %13, %.split.us.i.preheader.us ]
  %18 = getelementptr inbounds i8, ptr %17, i64 80
  %19 = load ptr, ptr %18, align 8
  %20 = getelementptr inbounds i8, ptr %17, i64 72
  %21 = load ptr, ptr %20, align 8
  %22 = icmp eq ptr %21, null
  br i1 %22, label %82, label %23

23:                                               ; preds = %.split.us.i.us
  %24 = load ptr, ptr %21, align 8
  %25 = getelementptr inbounds i8, ptr %17, i64 88
  %26 = load ptr, ptr %25, align 8
  %27 = getelementptr inbounds i8, ptr %19, i64 88
  store ptr %26, ptr %27, align 8
  %28 = load ptr, ptr %18, align 8
  %29 = getelementptr inbounds i8, ptr %26, i64 80
  store ptr %28, ptr %29, align 8
  %30 = getelementptr inbounds i8, ptr %21, i64 56
  %31 = load ptr, ptr %30, align 8
  %32 = icmp eq ptr %31, %17
  br i1 %32, label %33, label %36

33:                                               ; preds = %23
  %34 = icmp eq ptr %28, %17
  %35 = select i1 %34, ptr null, ptr %28
  store ptr %35, ptr %30, align 8
  br label %36

36:                                               ; preds = %33, %23
  store ptr null, ptr %20, align 8
  %37 = getelementptr inbounds i8, ptr %24, i64 832
  %38 = load i32, ptr @percpu_counter_batch, align 4
  tail call void @percpu_counter_add_batch(ptr noundef %37, i64 noundef -1, i32 noundef %38) #9
  tail call void @jbd2_journal_put_journal_head(ptr noundef %17) #9
  %39 = load ptr, ptr %30, align 8
  %40 = icmp eq ptr %39, null
  br i1 %40, label %41, label %82

41:                                               ; preds = %36
  %42 = getelementptr inbounds i8, ptr %21, i64 12
  %43 = load i32, ptr %42, align 4
  %44 = icmp eq i32 %43, 8
  br i1 %44, label %45, label %82

45:                                               ; preds = %41
  %46 = getelementptr inbounds i8, ptr %21, i64 112
  %47 = load i64, ptr %46, align 8
  %48 = icmp eq i64 %47, 0
  br i1 %48, label %55, label %49

49:                                               ; preds = %45
  %50 = load volatile i64, ptr @jiffies, align 64
  %51 = icmp ult i64 %50, %47
  %52 = sub i64 %50, %47
  %53 = add i64 %52, 4611686018427387902
  %54 = select i1 %51, i64 %53, i64 %52
  store i64 %54, ptr %46, align 8
  br label %55

55:                                               ; preds = %49, %45
  %56 = getelementptr inbounds i8, ptr %24, i64 1024
  %57 = load ptr, ptr %56, align 8
  %58 = getelementptr inbounds i8, ptr %57, i64 52
  %59 = load i32, ptr %58, align 4
  %60 = getelementptr inbounds i8, ptr %21, i64 8
  %61 = load i32, ptr %60, align 8
  callbr void asm sideeffect "1:jmp ${2:l} # objtool NOPs this \0A\09.pushsection __jump_table,  \22aw\22 \0A\09 .balign 8 \0A\09.long 1b - . \0A\09.long ${2:l} - . \0A\09 .quad ${0:c} + ${1:c} - .\0A\09.popsection \0A\09", "i,i,!i,~{dirflag},~{fpsr},~{flags}"(ptr nonnull getelementptr inbounds (%struct.tracepoint, ptr @__tracepoint_jbd2_checkpoint_stats, i64 0, i32 1), i32 2) #9
          to label %__jbd2_journal_remove_checkpoint.exit.us [label %62], !srcloc !17

62:                                               ; preds = %55
  %63 = tail call i32 asm sideeffect "movl %gs:$1, $0", "=r,*m,~{dirflag},~{fpsr},~{flags}"(ptr nonnull elementtype(i32) getelementptr inbounds (%struct.pcpu_hot, ptr @pcpu_hot, i64 0, i32 0, i32 0, i32 2)) #9, !srcloc !35
  %64 = zext i32 %63 to i64
  %65 = tail call i8 asm sideeffect " btq  $2,$1\0A\09/* output condition code c*/\0A", "={@ccc},*m,Ir,~{memory},~{dirflag},~{fpsr},~{flags}"(ptr nonnull elementtype(i64) @__cpu_online_mask, i64 %64) #9, !srcloc !19
  %66 = icmp ult i8 %65, 2
  tail call void @llvm.assume(i1 %66)
  %67 = icmp eq i8 %65, 0
  br i1 %67, label %__jbd2_journal_remove_checkpoint.exit.us, label %68

68:                                               ; preds = %62
  tail call void asm "incl %gs:$0", "=*m,*m,~{dirflag},~{fpsr},~{flags}"(ptr nonnull elementtype(i32) getelementptr inbounds (%struct.pcpu_hot, ptr @pcpu_hot, i64 0, i32 0, i32 0, i32 1), ptr nonnull elementtype(i32) getelementptr inbounds (%struct.pcpu_hot, ptr @pcpu_hot, i64 0, i32 0, i32 0, i32 1)) #9, !srcloc !20
  tail call void asm sideeffect "", "~{memory},~{dirflag},~{fpsr},~{flags}"() #9, !srcloc !36
  %69 = load volatile ptr, ptr getelementptr inbounds (%struct.tracepoint, ptr @__tracepoint_jbd2_checkpoint_stats, i64 0, i32 8), align 8
  %70 = icmp eq ptr %69, null
  br i1 %70, label %75, label %71

71:                                               ; preds = %68
  %72 = getelementptr inbounds i8, ptr %69, i64 8
  %73 = load ptr, ptr %72, align 8
  %74 = tail call i32 @__SCT__tp_func_jbd2_checkpoint_stats(ptr noundef %73, i32 noundef %59, i32 noundef %61, ptr noundef %46) #9
  br label %75

75:                                               ; preds = %71, %68
  tail call void asm sideeffect "", "~{memory},~{dirflag},~{fpsr},~{flags}"() #9, !srcloc !37
  %76 = tail call i8 asm sideeffect "decl %gs:$0\0A\09/* output condition code e*/\0A", "=*m,={@cce},*m,~{memory},~{dirflag},~{fpsr},~{flags}"(ptr nonnull elementtype(i32) getelementptr inbounds (%struct.pcpu_hot, ptr @pcpu_hot, i64 0, i32 0, i32 0, i32 1), ptr nonnull elementtype(i32) getelementptr inbounds (%struct.pcpu_hot, ptr @pcpu_hot, i64 0, i32 0, i32 0, i32 1)) #9, !srcloc !23
  %77 = icmp ult i8 %76, 2
  tail call void @llvm.assume(i1 %77)
  %78 = icmp eq i8 %76, 0
  br i1 %78, label %__jbd2_journal_remove_checkpoint.exit.us, label %79, !prof !24

79:                                               ; preds = %75
  %80 = tail call i64 @llvm.read_register.i64(metadata !0)
  %81 = tail call i64 asm sideeffect "call __SCT__preempt_schedule_notrace", "={rsp},{rsp},~{dirflag},~{fpsr},~{flags}"(i64 %80) #9, !srcloc !38
  tail call void @llvm.write_register.i64(metadata !0, i64 %81)
  br label %__jbd2_journal_remove_checkpoint.exit.us

__jbd2_journal_remove_checkpoint.exit.us:         ; preds = %79, %75, %62, %55
  tail call void @__jbd2_journal_drop_transaction(ptr noundef %24, ptr noundef nonnull %21)
  tail call void @jbd2_journal_free_transaction(ptr noundef nonnull %21) #9
  br label %journal_shrink_one_cp_list.exit.us

82:                                               ; preds = %41, %36, %.split.us.i.us
  %83 = tail call i64 asm "movq %gs:${1:P}, $0", "=r,p,~{dirflag},~{fpsr},~{flags}"(ptr nonnull @pcpu_hot) #11, !srcloc !33
  %84 = inttoptr i64 %83 to ptr
  %85 = load volatile i64, ptr %84, align 8
  %86 = and i64 %85, 8
  %87 = icmp ne i64 %86, 0
  %88 = icmp eq ptr %17, %16
  %or.cond.i.us = select i1 %87, i1 true, i1 %88
  br i1 %or.cond.i.us, label %journal_shrink_one_cp_list.exit.us, label %.split.us.i.us, !llvm.loop !39

journal_shrink_one_cp_list.exit.us:               ; preds = %82, %__jbd2_journal_remove_checkpoint.exit.us, %.split.us
  %89 = phi i1 [ true, %.split.us ], [ false, %__jbd2_journal_remove_checkpoint.exit.us ], [ true, %82 ]
  %90 = tail call i64 asm "movq %gs:${1:P}, $0", "=r,p,~{dirflag},~{fpsr},~{flags}"(ptr nonnull @pcpu_hot) #11, !srcloc !33
  %91 = inttoptr i64 %90 to ptr
  %92 = load volatile i64, ptr %91, align 8
  %93 = and i64 %92, 8
  %94 = icmp ne i64 %93, 0
  %95 = or i1 %89, %94
  %96 = icmp eq ptr %9, %8
  %97 = select i1 %95, i1 true, i1 %96
  br i1 %97, label %.loopexit, label %.split.us, !llvm.loop !45

.split:                                           ; preds = %6, %journal_shrink_one_cp_list.exit
  %98 = phi ptr [ %100, %journal_shrink_one_cp_list.exit ], [ %4, %6 ]
  %99 = getelementptr inbounds i8, ptr %98, i64 152
  %100 = load ptr, ptr %99, align 8
  %101 = getelementptr inbounds i8, ptr %98, i64 56
  %102 = load ptr, ptr %101, align 8
  %103 = icmp eq ptr %102, null
  br i1 %103, label %journal_shrink_one_cp_list.exit, label %.split.split.i.preheader

.split.split.i.preheader:                         ; preds = %.split
  %104 = getelementptr inbounds i8, ptr %102, i64 88
  %105 = load ptr, ptr %104, align 8
  br label %.split.split.i

.split.split.i:                                   ; preds = %.split.split.i.preheader, %124
  %106 = phi ptr [ %108, %124 ], [ %102, %.split.split.i.preheader ]
  %107 = getelementptr inbounds i8, ptr %106, i64 80
  %108 = load ptr, ptr %107, align 8
  %109 = load ptr, ptr %106, align 8
  %110 = getelementptr inbounds i8, ptr %106, i64 40
  %111 = load ptr, ptr %110, align 8
  %112 = icmp eq ptr %111, null
  br i1 %112, label %113, label %journal_shrink_one_cp_list.exit

113:                                              ; preds = %.split.split.i
  %114 = tail call i8 asm sideeffect ".pushsection .smp_locks,\22a\22\0A.balign 4\0A.long 671f - .\0A.popsection\0A671:\0A\09lock;  btsq  $2, $0\0A\09/* output condition code c*/\0A", "=*m,={@ccc},Ir,*m,~{memory},~{dirflag},~{fpsr},~{flags}"(ptr elementtype(i64) %109, i64 2, ptr elementtype(i64) %109) #9, !srcloc !28
  %115 = icmp ult i8 %114, 2
  tail call void @llvm.assume(i1 %115)
  %116 = icmp eq i8 %114, 0
  br i1 %116, label %117, label %journal_shrink_one_cp_list.exit

117:                                              ; preds = %113
  %118 = load volatile i64, ptr %109, align 8
  %119 = and i64 %118, 2
  %120 = icmp eq i64 %119, 0
  tail call void @unlock_buffer(ptr noundef %109) #9
  br i1 %120, label %121, label %journal_shrink_one_cp_list.exit

121:                                              ; preds = %117
  %122 = tail call i32 @__jbd2_journal_remove_checkpoint(ptr noundef %106), !range !30
  %123 = icmp eq i32 %122, 0
  br i1 %123, label %124, label %journal_shrink_one_cp_list.exit

124:                                              ; preds = %121
  %125 = tail call i64 asm "movq %gs:${1:P}, $0", "=r,p,~{dirflag},~{fpsr},~{flags}"(ptr nonnull @pcpu_hot) #11, !srcloc !33
  %126 = inttoptr i64 %125 to ptr
  %127 = load volatile i64, ptr %126, align 8
  %128 = and i64 %127, 8
  %129 = icmp ne i64 %128, 0
  %130 = icmp eq ptr %106, %105
  %or.cond12.i = select i1 %129, i1 true, i1 %130
  br i1 %or.cond12.i, label %journal_shrink_one_cp_list.exit, label %.split.split.i, !llvm.loop !39

journal_shrink_one_cp_list.exit:                  ; preds = %121, %.split.split.i, %113, %117, %124, %.split
  %131 = phi i1 [ true, %.split ], [ false, %121 ], [ true, %.split.split.i ], [ true, %113 ], [ true, %117 ], [ true, %124 ]
  %132 = tail call i64 asm "movq %gs:${1:P}, $0", "=r,p,~{dirflag},~{fpsr},~{flags}"(ptr nonnull @pcpu_hot) #11, !srcloc !33
  %133 = inttoptr i64 %132 to ptr
  %134 = load volatile i64, ptr %133, align 8
  %135 = and i64 %134, 8
  %136 = icmp ne i64 %135, 0
  %137 = or i1 %131, %136
  %138 = icmp eq ptr %98, %8
  %139 = select i1 %137, i1 true, i1 %138
  br i1 %139, label %.loopexit, label %.split, !llvm.loop !45

.loopexit:                                        ; preds = %journal_shrink_one_cp_list.exit, %journal_shrink_one_cp_list.exit.us, %2
  ret void
}